
branches_tests.elf:     file format elf32-littleriscv


Disassembly of section .text:

40000000 <_start>:
40000000:	06400113          	li	x2,100
40000004:	00000463          	beqz	x0,4000000c <branch1>
40000008:	07b00113          	li	x2,123

4000000c <branch1>:
4000000c:	1f400093          	li	x1,500
40000010:	00200a13          	li	x20,2
40000014:	fe000013          	li	x0,-32
40000018:	fe000013          	li	x0,-32
4000001c:	fe000013          	li	x0,-32
40000020:	fff00513          	li	x10,-1
40000024:	06400113          	li	x2,100
40000028:	12c00093          	li	x1,300
4000002c:	00a00a63          	beq	x0,x10,40000040 <branch2>
40000030:	06f00113          	li	x2,111
40000034:	3e800013          	li	x0,1000
40000038:	3e800013          	li	x0,1000
4000003c:	0080006f          	j	40000044 <done2>

40000040 <branch2>:
40000040:	1f500093          	li	x1,501

40000044 <done2>:
40000044:	00300a13          	li	x20,3
40000048:	00100513          	li	x10,1
4000004c:	00100593          	li	x11,1
40000050:	00b51663          	bne	x10,x11,4000005c <branch3>
40000054:	00b500b3          	add	x1,x10,x11
40000058:	0080006f          	j	40000060 <done3>

4000005c <branch3>:
4000005c:	06400093          	li	x1,100

40000060 <done3>:
40000060:	00400a13          	li	x20,4
40000064:	3e700513          	li	x10,999
40000068:	00100593          	li	x11,1
4000006c:	00b51863          	bne	x10,x11,4000007c <branch4>
40000070:	00b500b3          	add	x1,x10,x11
40000074:	0040006f          	j	40000078 <done4>

40000078 <done4>:
40000078:	01400093          	li	x1,20

4000007c <branch4>:
4000007c:	00500a13          	li	x20,5
40000080:	3e700513          	li	x10,999
40000084:	00100593          	li	x11,1

40000088 <branch5>:
40000088:	00b58133          	add	x2,x11,x11
4000008c:	00600a13          	li	x20,6
40000090:	feb54ce3          	blt	x10,x11,40000088 <branch5>
40000094:	00b500b3          	add	x1,x10,x11
40000098:	004001ef          	jal	x3,4000009c <done5>

4000009c <done5>:
4000009c:	00018113          	mv	x2,x3
400000a0:	00700a13          	li	x20,7
400000a4:	ff600513          	li	x10,-10
400000a8:	0000c5b7          	lui	x11,0xc
400000ac:	35058593          	addi	x11,x11,848 # c350 <_start-0x3fff3cb0>
400000b0:	00b54263          	blt	x10,x11,400000b4 <branch6>

400000b4 <branch6>:
400000b4:	000030b7          	lui	x1,0x3
400000b8:	03908093          	addi	x1,x1,57 # 3039 <_start-0x3fffcfc7>
400000bc:	00800a13          	li	x20,8
400000c0:	06500513          	li	x10,101
400000c4:	00100593          	li	x11,1
400000c8:	01f00613          	li	x12,31
400000cc:	00b55463          	bge	x10,x11,400000d4 <done6>
400000d0:	00b500b3          	add	x1,x10,x11

400000d4 <done6>:
400000d4:	00c510b3          	sll	x1,x10,x12
400000d8:	00900a13          	li	x20,9
400000dc:	00100513          	li	x10,1
400000e0:	00200593          	li	x11,2
400000e4:	00b55863          	bge	x10,x11,400000f4 <branch7>
400000e8:	00b501a3          	sb	x11,3(x10)
400000ec:	00350083          	lb	x1,3(x10)
400000f0:	0080006f          	j	400000f8 <done7>

400000f4 <branch7>:
400000f4:	0c800093          	li	x1,200

400000f8 <done7>:
400000f8:	00a00a13          	li	x20,10
400000fc:	fff00513          	li	x10,-1
40000100:	00100593          	li	x11,1

40000104 <branch8>:
40000104:	00b58133          	add	x2,x11,x11
40000108:	00b00a13          	li	x20,11
4000010c:	feb56ce3          	bltu	x10,x11,40000104 <branch8>
40000110:	00b500b3          	add	x1,x10,x11
40000114:	004001ef          	jal	x3,40000118 <done8>

40000118 <done8>:
40000118:	00018113          	mv	x2,x3
4000011c:	00c00a13          	li	x20,12
40000120:	00100513          	li	x10,1
40000124:	fff00593          	li	x11,-1
40000128:	00150093          	addi	x1,x10,1
4000012c:	00b56263          	bltu	x10,x11,40000130 <done9>

40000130 <done9>:
40000130:	000000b3          	add	x1,x0,x0
40000134:	00d00a13          	li	x20,13
40000138:	fff00513          	li	x10,-1
4000013c:	fff00593          	li	x11,-1
40000140:	00b57463          	bgeu	x10,x11,40000148 <done10>
40000144:	0200006f          	j	40000164 <Done>

40000148 <done10>:
40000148:	07b00093          	li	x1,123
4000014c:	00e00a13          	li	x20,14

40000150 <branch9>:
40000150:	00100513          	li	x10,1
40000154:	fff00593          	li	x11,-1
40000158:	feb57ce3          	bgeu	x10,x11,40000150 <branch9>
4000015c:	40b500b3          	sub	x1,x10,x11
40000160:	00f00a13          	li	x20,15

40000164 <Done>:
40000164:	0000006f          	j	40000164 <Done>

Disassembly of section .riscv.attributes:

00000000 <.riscv.attributes>:
   0:	1941                	addi	x18,x18,-16
   2:	0000                	unimp
   4:	7200                	flw	f8,32(x12)
   6:	7369                	lui	x6,0xffffa
   8:	01007663          	bgeu	x0,x16,14 <_start-0x3fffffec>
   c:	0000000f          	fence	unknown,unknown
  10:	7205                	lui	x4,0xfffe1
  12:	3376                	fld	f6,376(x2)
  14:	6932                	flw	f18,12(x2)
  16:	7032                	flw	f0,44(x2)
  18:	0030                	addi	x12,x2,8
